target datalayout = "e-m:e-p270:32:32-p271:32:32-p272:64:64-i64:64-i128:128-f80:128-n8:16:32:64-S128"
target triple = "x86_64-pc-linux-gnu"

%struct.rb_data_type_struct = type { ptr, %struct.anon, ptr, ptr, i64 }
%struct.anon = type { ptr, ptr, ptr, ptr, [1 x ptr] }
%struct.RBasic = type { i64, i64 }
%struct.RTypedData = type { %struct.RBasic, ptr, i64, ptr }

@cCipher = internal global i64 0, align 8
@ossl_cipher_type = internal constant %struct.rb_data_type_struct { ptr @.str.30, %struct.anon { ptr null, ptr @ossl_cipher_free, ptr null, ptr null, [1 x ptr] zeroinitializer }, ptr null, ptr null, i64 33 }, align 8
@rb_eRuntimeError = external global i64, align 8
@eCipherError = internal global i64 0, align 8

; Function Attrs: nounwind sspstrong uwtable
define internal i64 @ossl_cipher_alloc(i64 noundef %0) #0 {
  %2 = alloca i64, align 8
  store i64 %0, ptr %2, align 8, !tbaa !6
  %3 = load i64, ptr %2, align 8, !tbaa !6
  %4 = call i64 @rb_data_typed_object_wrap(i64 noundef %3, ptr noundef null, ptr noundef @ossl_cipher_type)
  ret i64 %4
}

; Function Attrs: nounwind sspstrong uwtable
define i64 @ossl_cipher_new(ptr noundef %0) #0 {
  %2 = alloca ptr, align 8
  %3 = alloca i64, align 8
  %4 = alloca ptr, align 8
  store ptr %0, ptr %2, align 8, !tbaa !13
  call void @llvm.lifetime.start.p0(i64 8, ptr %3) #20
  call void @llvm.lifetime.start.p0(i64 8, ptr %4) #20
  %5 = load i64, ptr @cCipher, align 8, !tbaa !6
  %6 = call i64 @ossl_cipher_alloc(i64 noundef %5)
  store i64 %6, ptr %3, align 8, !tbaa !6
  br label %7

7:                                                ; preds = %1
  %8 = call ptr @EVP_CIPHER_CTX_new()
  store ptr %8, ptr %4, align 8, !tbaa !10
  %9 = load ptr, ptr %4, align 8, !tbaa !10
  %10 = icmp ne ptr %9, null
  br i1 %10, label %13, label %11

11:                                               ; preds = %7
  %12 = load i64, ptr @rb_eRuntimeError, align 8, !tbaa !6
  call void (i64, ptr, ...) @ossl_raise(i64 noundef %12, ptr noundef null) #21
  unreachable

13:                                               ; preds = %7
  %14 = load ptr, ptr %4, align 8, !tbaa !10
  %15 = load i64, ptr %3, align 8, !tbaa !6
  %16 = inttoptr i64 %15 to ptr
  %17 = getelementptr inbounds nuw %struct.RTypedData, ptr %16, i32 0, i32 3
  store ptr %14, ptr %17, align 8, !tbaa !18
  br label %18

18:                                               ; preds = %13
  br label %19

19:                                               ; preds = %18
  %20 = load ptr, ptr %4, align 8, !tbaa !10
  %21 = load ptr, ptr %2, align 8, !tbaa !13
  %22 = call i32 @EVP_CipherInit_ex(ptr noundef %20, ptr noundef %21, ptr noundef null, ptr noundef null, ptr noundef null, i32 noundef -1)
  %23 = icmp ne i32 %22, 1
  br i1 %23, label %24, label %26

24:                                               ; preds = %19
  %25 = load i64, ptr @eCipherError, align 8, !tbaa !6
  call void (i64, ptr, ...) @ossl_raise(i64 noundef %25, ptr noundef null) #21
  unreachable

26:                                               ; preds = %19
  %27 = load i64, ptr %3, align 8, !tbaa !6
  call void @llvm.lifetime.end.p0(i64 8, ptr %4) #20
  call void @llvm.lifetime.end.p0(i64 8, ptr %3) #20
  ret i64 %27
}