; Function Attrs: nounwind sspstrong uwtable
define i64 @ossl_cipher_new(ptr noundef %0) local_unnamed_addr #0 {
  %2 = load i64, ptr @cCipher, align 8, !tbaa !6
  %3 = tail call i64 @rb_data_typed_object_wrap(i64 noundef %2, ptr noundef null, ptr noundef nonnull @ossl_cipher_type) #11
  %4 = tail call ptr @EVP_CIPHER_CTX_new() #11
  %.not = icmp eq ptr %4, null
  br i1 %.not, label %5, label %7

5:                                                ; preds = %1
  %6 = load i64, ptr @rb_eRuntimeError, align 8, !tbaa !6
  tail call void (i64, ptr, ...) @ossl_raise(i64 noundef %6, ptr noundef null) #12
  unreachable

7:                                                ; preds = %1
  %8 = inttoptr i64 %3 to ptr
  %9 = getelementptr inbounds nuw i8, ptr %8, i64 32
  store ptr %4, ptr %9, align 8, !tbaa !15
  %10 = tail call i32 @EVP_CipherInit_ex(ptr noundef nonnull %4, ptr noundef %0, ptr noundef null, ptr noundef null, ptr noundef null, i32 noundef -1) #11
  %.not5 = icmp eq i32 %10, 1
  br i1 %.not5, label %13, label %11

11:                                               ; preds = %7
  %12 = load i64, ptr @eCipherError, align 8, !tbaa !6
  tail call void (i64, ptr, ...) @ossl_raise(i64 noundef %12, ptr noundef null) #12
  unreachable

13:                                               ; preds = %7
  ret i64 %3
}